; Function Attrs: mustprogress uwtable
define hidden void @_ZN3smt18quantifier_manager9add_eq_ehEPNS_5enodeES2_(ptr noundef nonnull readonly align 8 captures(none) dereferenceable(13) %0, ptr noundef %1, ptr noundef %2) local_unnamed_addr #4 align 2 {
  %4 = load ptr, ptr %0, align 8, !tbaa !82
  %5 = getelementptr inbounds nuw i8, ptr %4, i64 1160
  %6 = load ptr, ptr %5, align 8, !tbaa !85
  %7 = load ptr, ptr %6, align 8, !tbaa !56
  %8 = getelementptr inbounds nuw i8, ptr %7, i64 64
  %9 = load ptr, ptr %8, align 8
  tail call void %9(ptr noundef nonnull align 8 dereferenceable(8) %6, ptr noundef %1, ptr noundef %2)
  ret void
}